target datalayout = "e-m:e-p270:32:32-p271:32:32-p272:64:64-i64:64-i128:128-f80:128-n8:16:32:64-S128"
target triple = "x86_64-pc-linux-gnu"

%struct.QMetaObject = type { %"struct.QMetaObject::Data" }
%"struct.QMetaObject::Data" = type { %"struct.QMetaObject::SuperData", ptr, ptr, ptr, ptr, ptr, ptr }
%"struct.QMetaObject::SuperData" = type { ptr }
%class.QObject = type { ptr, %class.QScopedPointer }
%class.QScopedPointer = type { ptr }
%class.CMainWindow = type { %class.QMainWindow, ptr, ptr, i32, i32, ptr, ptr, ptr, ptr, ptr, ptr, ptr, ptr, ptr, ptr, ptr, ptr, ptr, ptr, ptr, ptr, ptr, ptr, ptr, ptr, ptr, ptr, ptr, ptr, ptr, ptr, ptr }
%class.QMainWindow = type { %class.QWidget }
%class.QWidget = type { %class.QObject, %class.QPaintDevice.base, ptr }
%class.QPaintDevice.base = type <{ ptr, i16 }>
%class.ImageViewer = type { %class.QMainWindow, ptr, ptr, ptr, ptr, double, ptr, ptr, ptr, ptr, ptr, ptr, ptr, ptr, ptr, ptr }

@.str.34 = private unnamed_addr constant [9 x i8] c"MdiChild\00", align 1
@_ZN8MdiChild16staticMetaObjectE = external global %struct.QMetaObject, align 8
@_ZN11ImageViewer16staticMetaObjectE = external global %struct.QMetaObject, align 8

; Function Attrs: mustprogress uwtable
define linkonce_odr noundef ptr @_ZNK11QMetaObject4castEP7QObject(ptr noundef nonnull align 8 dereferenceable(56) %0, ptr noundef %1) #0 comdat align 2 {
  %3 = alloca ptr, align 8
  %4 = alloca ptr, align 8
  store ptr %0, ptr %3, align 8, !tbaa !413
  store ptr %1, ptr %4, align 8, !tbaa !128
  %5 = load ptr, ptr %3, align 8
  %6 = load ptr, ptr %4, align 8, !tbaa !128
  %7 = call noundef ptr @_ZNK11QMetaObject4castEPK7QObject(ptr noundef nonnull align 8 dereferenceable(56) %5, ptr noundef %6)
  ret ptr %7
}

; Function Attrs: inlinehint mustprogress uwtable
define linkonce_odr noundef ptr @_Z12qobject_castIP11ImageViewerET_P7QObject(ptr noundef %0) #6 comdat {
  %2 = alloca ptr, align 8
  store ptr %0, ptr %2, align 8, !tbaa !128
  %3 = load ptr, ptr %2, align 8, !tbaa !128
  %4 = call noundef ptr @_ZNK11QMetaObject4castEP7QObject(ptr noundef nonnull align 8 dereferenceable(56) @_ZN11ImageViewer16staticMetaObjectE, ptr noundef %3)
  ret ptr %4
}

; Function Attrs: inlinehint mustprogress uwtable
define linkonce_odr noundef ptr @_Z12qobject_castIP8MdiChildET_P7QObject(ptr noundef %0) #6 comdat {
  %2 = alloca ptr, align 8
  store ptr %0, ptr %2, align 8, !tbaa !128
  %3 = load ptr, ptr %2, align 8, !tbaa !128
  %4 = call noundef ptr @_ZNK11QMetaObject4castEP7QObject(ptr noundef nonnull align 8 dereferenceable(56) @_ZN8MdiChild16staticMetaObjectE, ptr noundef %3)
  ret ptr %4
}

; Function Attrs: inlinehint mustprogress uwtable
define linkonce_odr noundef zeroext i1 @_ZNK7QObject8inheritsEPKc(ptr noundef nonnull align 8 dereferenceable(16) %0, ptr noundef %1) #6 comdat align 2 {
  %3 = alloca ptr, align 8
  %4 = alloca ptr, align 8
  store ptr %0, ptr %3, align 8, !tbaa !128
  store ptr %1, ptr %4, align 8, !tbaa !3
  %5 = load ptr, ptr %3, align 8
  %6 = load ptr, ptr %4, align 8, !tbaa !3
  %7 = load ptr, ptr %5, align 8, !tbaa !66
  %8 = getelementptr inbounds ptr, ptr %7, i64 1
  %9 = load ptr, ptr %8, align 8
  %10 = call noundef ptr %9(ptr noundef nonnull align 8 dereferenceable(16) %5, ptr noundef %6)
  %11 = icmp ne ptr %10, null
  ret i1 %11
}

; Function Attrs: mustprogress uwtable
define noundef ptr @_ZN11CMainWindow14activeMdiChildEv(ptr noundef nonnull align 8 dereferenceable(280) %0) #0 align 2 {
  %2 = alloca ptr, align 8
  %3 = alloca ptr, align 8
  %4 = alloca ptr, align 8
  %5 = alloca i32, align 4
  store ptr %0, ptr %3, align 8, !tbaa !21
  %6 = load ptr, ptr %3, align 8
  call void @llvm.lifetime.start.p0(i64 8, ptr %4) #11
  %7 = getelementptr inbounds nuw %class.CMainWindow, ptr %6, i32 0, i32 1
  %8 = load ptr, ptr %7, align 8, !tbaa !70
  %9 = call noundef ptr @_ZNK8QMdiArea15activeSubWindowEv(ptr noundef nonnull align 8 dereferenceable(40) %8)
  store ptr %9, ptr %4, align 8, !tbaa !151
  %10 = load ptr, ptr %4, align 8, !tbaa !151
  %11 = icmp ne ptr %10, null
  br i1 %11, label %12, label %26

12:                                               ; preds = %1
  %13 = load ptr, ptr %4, align 8, !tbaa !151
  %14 = call noundef ptr @_ZNK13QMdiSubWindow6widgetEv(ptr noundef nonnull align 8 dereferenceable(40) %13)
  %15 = call noundef zeroext i1 @_ZNK7QObject8inheritsEPKc(ptr noundef nonnull align 8 dereferenceable(16) %14, ptr noundef @.str.34)
  br i1 %15, label %16, label %20

16:                                               ; preds = %12
  %17 = load ptr, ptr %4, align 8, !tbaa !151
  %18 = call noundef ptr @_ZNK13QMdiSubWindow6widgetEv(ptr noundef nonnull align 8 dereferenceable(40) %17)
  %19 = call noundef ptr @_Z12qobject_castIP8MdiChildET_P7QObject(ptr noundef %18)
  store ptr %19, ptr %2, align 8
  store i32 1, ptr %5, align 4
  br label %27

20:                                               ; preds = %12
  %21 = load ptr, ptr %4, align 8, !tbaa !151
  %22 = call noundef ptr @_ZNK13QMdiSubWindow6widgetEv(ptr noundef nonnull align 8 dereferenceable(40) %21)
  %23 = call noundef ptr @_Z12qobject_castIP11ImageViewerET_P7QObject(ptr noundef %22)
  %24 = getelementptr inbounds nuw %class.ImageViewer, ptr %23, i32 0, i32 1
  %25 = load ptr, ptr %24, align 8, !tbaa !179
  store ptr %25, ptr %2, align 8
  store i32 1, ptr %5, align 4
  br label %27

26:                                               ; preds = %1
  store i32 0, ptr %5, align 4
  br label %27

27:                                               ; preds = %26, %20, %16
  call void @llvm.lifetime.end.p0(i64 8, ptr %4) #11
  %28 = load i32, ptr %5, align 4
  switch i32 %28, label %32 [
    i32 0, label %29
    i32 1, label %30
  ]

29:                                               ; preds = %27
  store ptr null, ptr %2, align 8
  br label %30

30:                                               ; preds = %29, %27
  %31 = load ptr, ptr %2, align 8
  ret ptr %31

32:                                               ; preds = %27
  unreachable
}

; Function Attrs: mustprogress uwtable
define void @_ZN11CMainWindow8slotCopyEv(ptr noundef nonnull align 8 dereferenceable(280) %0) #0 align 2 {
  %2 = alloca ptr, align 8
  store ptr %0, ptr %2, align 8, !tbaa !21
  %3 = load ptr, ptr %2, align 8
  %4 = call noundef ptr @_ZN11CMainWindow14activeMdiChildEv(ptr noundef nonnull align 8 dereferenceable(280) %3)
  %5 = icmp ne ptr %4, null
  br i1 %5, label %6, label %8

6:                                                ; preds = %1
  %7 = call noundef ptr @_ZN11CMainWindow14activeMdiChildEv(ptr noundef nonnull align 8 dereferenceable(280) %3)
  call void @_ZN9QTextEdit4copyEv(ptr noundef nonnull align 8 dereferenceable(40) %7)
  br label %8

8:                                                ; preds = %6, %1
  ret void
}