; Function Attrs: mustprogress uwtable
define void @_ZN11CMainWindow8slotCopyEv(ptr noundef nonnull readonly align 8 captures(none) dereferenceable(280) %0) #0 align 2 {
  %2 = getelementptr inbounds nuw i8, ptr %0, i64 40
  %3 = load ptr, ptr %2, align 8, !tbaa !48
  %4 = tail call noundef ptr @_ZNK8QMdiArea15activeSubWindowEv(ptr noundef nonnull align 8 dereferenceable(40) %3)
  %.not.not.i = icmp eq ptr %4, null
  br i1 %.not.not.i, label %_ZN11CMainWindow14activeMdiChildEv.exit.thread, label %5

5:                                                ; preds = %1
  %6 = tail call noundef ptr @_ZNK13QMdiSubWindow6widgetEv(ptr noundef nonnull align 8 dereferenceable(40) %4)
  %7 = load ptr, ptr %6, align 8, !tbaa !46
  %8 = getelementptr inbounds nuw i8, ptr %7, i64 8
  %9 = load ptr, ptr %8, align 8
  %10 = tail call noundef ptr %9(ptr noundef nonnull align 8 dereferenceable(16) %6, ptr noundef nonnull @.str.34)
  %.not8.i = icmp eq ptr %10, null
  %11 = tail call noundef ptr @_ZNK13QMdiSubWindow6widgetEv(ptr noundef nonnull align 8 dereferenceable(40) %4)
  br i1 %.not8.i, label %14, label %12

12:                                               ; preds = %5
  %13 = tail call noundef ptr @_ZNK11QMetaObject4castEPK7QObject(ptr noundef nonnull align 8 dereferenceable(56) @_ZN8MdiChild16staticMetaObjectE, ptr noundef %11)
  br label %_ZN11CMainWindow14activeMdiChildEv.exit

14:                                               ; preds = %5
  %15 = tail call noundef ptr @_ZNK11QMetaObject4castEPK7QObject(ptr noundef nonnull align 8 dereferenceable(56) @_ZN11ImageViewer16staticMetaObjectE, ptr noundef %11)
  %16 = getelementptr inbounds nuw i8, ptr %15, i64 40
  %17 = load ptr, ptr %16, align 8, !tbaa !220
  br label %_ZN11CMainWindow14activeMdiChildEv.exit

_ZN11CMainWindow14activeMdiChildEv.exit:          ; preds = %12, %14
  %spec.select.i = phi ptr [ %13, %12 ], [ %17, %14 ]
  %.not = icmp eq ptr %spec.select.i, null
  br i1 %.not, label %_ZN11CMainWindow14activeMdiChildEv.exit.thread, label %18

18:                                               ; preds = %_ZN11CMainWindow14activeMdiChildEv.exit
  %19 = load ptr, ptr %2, align 8, !tbaa !48
  %20 = tail call noundef ptr @_ZNK8QMdiArea15activeSubWindowEv(ptr noundef nonnull align 8 dereferenceable(40) %19)
  %.not.not.i1 = icmp ne ptr %20, null
  tail call void @llvm.assume(i1 %.not.not.i1)
  %21 = tail call noundef ptr @_ZNK13QMdiSubWindow6widgetEv(ptr noundef nonnull align 8 dereferenceable(40) %20)
  %22 = load ptr, ptr %21, align 8, !tbaa !46
  %23 = getelementptr inbounds nuw i8, ptr %22, i64 8
  %24 = load ptr, ptr %23, align 8
  %25 = tail call noundef ptr %24(ptr noundef nonnull align 8 dereferenceable(16) %21, ptr noundef nonnull @.str.34)
  %.not8.i2 = icmp eq ptr %25, null
  %26 = tail call noundef ptr @_ZNK13QMdiSubWindow6widgetEv(ptr noundef nonnull align 8 dereferenceable(40) %20)
  br i1 %.not8.i2, label %29, label %27

27:                                               ; preds = %18
  %28 = tail call noundef ptr @_ZNK11QMetaObject4castEPK7QObject(ptr noundef nonnull align 8 dereferenceable(56) @_ZN8MdiChild16staticMetaObjectE, ptr noundef %26)
  br label %_ZN11CMainWindow14activeMdiChildEv.exit4

29:                                               ; preds = %18
  %30 = tail call noundef ptr @_ZNK11QMetaObject4castEPK7QObject(ptr noundef nonnull align 8 dereferenceable(56) @_ZN11ImageViewer16staticMetaObjectE, ptr noundef %26)
  %31 = getelementptr inbounds nuw i8, ptr %30, i64 40
  %32 = load ptr, ptr %31, align 8, !tbaa !220
  br label %_ZN11CMainWindow14activeMdiChildEv.exit4

_ZN11CMainWindow14activeMdiChildEv.exit4:         ; preds = %27, %29
  %spec.select.i3 = phi ptr [ %28, %27 ], [ %32, %29 ]
  tail call void @_ZN9QTextEdit4copyEv(ptr noundef nonnull align 8 dereferenceable(40) %spec.select.i3)
  br label %_ZN11CMainWindow14activeMdiChildEv.exit.thread

_ZN11CMainWindow14activeMdiChildEv.exit.thread:   ; preds = %1, %_ZN11CMainWindow14activeMdiChildEv.exit4, %_ZN11CMainWindow14activeMdiChildEv.exit
  ret void
}